; Function Attrs: mustprogress nofree nounwind willreturn memory(argmem: read) uwtable
define range(i32 -100, -88) i32 @Io_ReadFinType(ptr noundef readonly captures(none) %0) local_unnamed_addr #4 {
  %2 = tail call i32 @strcmp(ptr noundef nonnull dereferenceable(1) %0, ptr noundef nonnull dereferenceable(4) @.str.3) #33
  %.not = icmp eq i32 %2, 0
  br i1 %.not, label %23, label %3

3:                                                ; preds = %1
  %4 = tail call i32 @strcmp(ptr noundef nonnull dereferenceable(1) %0, ptr noundef nonnull dereferenceable(4) @.str.4) #33
  %.not11 = icmp eq i32 %4, 0
  br i1 %.not11, label %23, label %5

5:                                                ; preds = %3
  %6 = tail call i32 @strcmp(ptr noundef nonnull dereferenceable(1) %0, ptr noundef nonnull dereferenceable(4) @.str.5) #33
  %.not12 = icmp eq i32 %6, 0
  br i1 %.not12, label %23, label %7

7:                                                ; preds = %5
  %8 = tail call i32 @strcmp(ptr noundef nonnull dereferenceable(1) %0, ptr noundef nonnull dereferenceable(9) @.str.10) #33
  %.not13 = icmp eq i32 %8, 0
  br i1 %.not13, label %23, label %9

9:                                                ; preds = %7
  %10 = tail call i32 @strcmp(ptr noundef nonnull dereferenceable(1) %0, ptr noundef nonnull dereferenceable(10) @.str.11) #33
  %.not14 = icmp eq i32 %10, 0
  br i1 %.not14, label %23, label %11

11:                                               ; preds = %9
  %12 = tail call i32 @strcmp(ptr noundef nonnull dereferenceable(1) %0, ptr noundef nonnull dereferenceable(8) @.str.12) #33
  %.not15 = icmp eq i32 %12, 0
  br i1 %.not15, label %23, label %13

13:                                               ; preds = %11
  %14 = tail call i32 @strcmp(ptr noundef nonnull dereferenceable(1) %0, ptr noundef nonnull dereferenceable(9) @.str.13) #33
  %.not16 = icmp eq i32 %14, 0
  br i1 %.not16, label %23, label %15

15:                                               ; preds = %13
  %16 = tail call i32 @strcmp(ptr noundef nonnull dereferenceable(1) %0, ptr noundef nonnull dereferenceable(9) @.str.14) #33
  %.not17 = icmp eq i32 %16, 0
  br i1 %.not17, label %23, label %17

17:                                               ; preds = %15
  %18 = tail call i32 @strcmp(ptr noundef nonnull dereferenceable(1) %0, ptr noundef nonnull dereferenceable(10) @.str.15) #33
  %.not18 = icmp eq i32 %18, 0
  br i1 %.not18, label %23, label %19

19:                                               ; preds = %17
  %20 = tail call i32 @strcmp(ptr noundef nonnull dereferenceable(1) %0, ptr noundef nonnull dereferenceable(9) @.str.16) #33
  %.not19 = icmp eq i32 %20, 0
  br i1 %.not19, label %23, label %21

21:                                               ; preds = %19
  %22 = tail call i32 @strcmp(ptr noundef nonnull dereferenceable(1) %0, ptr noundef nonnull dereferenceable(10) @.str.17) #33
  %.not20 = icmp eq i32 %22, 0
  %. = select i1 %.not20, i32 -89, i32 -100
  br label %23

23:                                               ; preds = %21, %19, %17, %15, %13, %11, %9, %7, %5, %3, %1
  %.0 = phi i32 [ -99, %1 ], [ -98, %3 ], [ -97, %5 ], [ -96, %7 ], [ -95, %9 ], [ -94, %11 ], [ -93, %13 ], [ -92, %15 ], [ -91, %17 ], [ -90, %19 ], [ %., %21 ]
  ret i32 %.0
}